target datalayout = "e-m:e-p270:32:32-p271:32:32-p272:64:64-i64:64-i128:128-f80:128-n8:16:32:64-S128"
target triple = "x86_64-pc-linux-gnu"

%struct.ssl_connection_st = type { %struct.ssl_st, ptr, i32, ptr, ptr, ptr, i32, ptr, i32, i32, i32, i32, %struct.OSSL_TIME, %struct.OSSL_TIME, %struct.ossl_statem_st, i32, ptr, ptr, i64, i64, i64, %struct.ossl_quic_tls_callbacks_st, ptr, ptr, %struct.anon, ptr, ptr, ptr, i32, ptr, %struct.ssl_dane_st, ptr, ptr, ptr, ptr, i32, [64 x i8], [64 x i8], [64 x i8], [64 x i8], [64 x i8], [64 x i8], [64 x i8], [64 x i8], [64 x i8], [64 x i8], [64 x i8], [64 x i8], ptr, [64 x i8], i64, i32, i64, [32 x i8], ptr, ptr, ptr, i64, ptr, [32 x i8], i64, i32, ptr, ptr, i32, i32, ptr, ptr, ptr, ptr, ptr, i64, ptr, ptr, i64, i32, i32, i32, i64, i32, i32, i64, i64, i64, %struct.anon.1, ptr, i32, ptr, ptr, ptr, i32, ptr, ptr, ptr, i32, i32, i32, i32, ptr, i64, i32, ptr, %struct.srp_ctx_st, ptr, %struct.record_layer_st, ptr, ptr, ptr, ptr, i64, i32, i32, i32, i64, i64, i64, ptr, ptr, ptr, ptr, ptr, i64, ptr, i64, ptr, i64 }
%struct.ssl_st = type { i32, ptr, ptr, ptr, %struct.CRYPTO_REF_COUNT, ptr, %struct.crypto_ex_data_st }
%struct.CRYPTO_REF_COUNT = type { i32 }
%struct.crypto_ex_data_st = type { ptr, ptr }
%struct.OSSL_TIME = type { i64 }
%struct.ossl_statem_st = type { i32, i32, i32, i32, i32, i32, i32, i32, i32, i32, i32, i32, i32, ptr, ptr, ptr, i8 }
%struct.ossl_quic_tls_callbacks_st = type { ptr, ptr, ptr, ptr, ptr, ptr }
%struct.anon = type { i64, [32 x i8], [32 x i8], ptr, ptr, i32, i32, i32, i32, [2 x i8], i32, i32, i32, i32, %struct.anon.0, [64 x i8], i64, [64 x i8], i64, i32, i32, ptr, i64, ptr, i64, i32, i8, i8, i16, ptr, i16 }
%struct.anon.0 = type { [128 x i8], i64, [128 x i8], i64, i64, i32, ptr, ptr, [4 x ptr], [4 x i16], i64, i32, ptr, i64, ptr, i64, ptr, ptr, ptr, i32, i64, ptr, i32, ptr, i64, ptr, i64, ptr, i64, ptr, ptr, ptr, ptr, i64, i64, ptr, ptr, i32, i32, i32, i32 }
%struct.ssl_dane_st = type { ptr, ptr, ptr, ptr, ptr, i32, i32, i32, i64 }
%struct.anon.1 = type { [29 x i8], ptr, ptr, ptr, i32, ptr, i16, i32, %struct.anon.2, i32, i32, i64, ptr, i64, ptr, i64, ptr, i64, ptr, i64, ptr, i64, ptr, ptr, ptr, ptr, ptr, ptr, ptr, i64, ptr, i64, i32, i32, i32, i32, ptr, i64, i32, i8, i32, [4 x i32], i32, i8, i8, i8, i8 }
%struct.anon.2 = type { ptr, ptr, ptr, i64 }
%struct.srp_ctx_st = type { ptr, ptr, ptr, ptr, ptr, ptr, ptr, ptr, ptr, ptr, ptr, ptr, ptr, ptr, i32, i64 }
%struct.record_layer_st = type { ptr, ptr, ptr, ptr, ptr, ptr, ptr, ptr, i64, i32, i64, [4 x i8], i64, i64, i8, ptr, i32, ptr, ptr, ptr, i64, i64, i64, i64, [32 x %struct.tls_record_st] }
%struct.tls_record_st = type { ptr, i32, i8, ptr, ptr, i64, i64, i16, [8 x i8] }

; Function Attrs: nounwind uwtable
define i32 @SSL_get_all_async_fds(ptr noundef %0, ptr noundef %1, ptr noundef %2) #0 {
  %4 = alloca i32, align 4
  %5 = alloca ptr, align 8
  %6 = alloca ptr, align 8
  %7 = alloca ptr, align 8
  %8 = alloca ptr, align 8
  %9 = alloca ptr, align 8
  %10 = alloca i32, align 4
  store ptr %0, ptr %5, align 8, !tbaa !16
  store ptr %1, ptr %6, align 8, !tbaa !270
  store ptr %2, ptr %7, align 8, !tbaa !12
  call void @llvm.lifetime.start.p0(i64 8, ptr %8) #9
  call void @llvm.lifetime.start.p0(i64 8, ptr %9) #9
  %11 = load ptr, ptr %5, align 8, !tbaa !16
  %12 = icmp eq ptr %11, null
  br i1 %12, label %13, label %14

13:                                               ; preds = %3
  br label %35

14:                                               ; preds = %3
  %15 = load ptr, ptr %5, align 8, !tbaa !16
  %16 = getelementptr inbounds nuw %struct.ssl_st, ptr %15, i32 0, i32 0
  %17 = load i32, ptr %16, align 8, !tbaa !29
  %18 = icmp eq i32 %17, 0
  br i1 %18, label %19, label %21

19:                                               ; preds = %14
  %20 = load ptr, ptr %5, align 8, !tbaa !16
  br label %33

21:                                               ; preds = %14
  %22 = load ptr, ptr %5, align 8, !tbaa !16
  %23 = getelementptr inbounds nuw %struct.ssl_st, ptr %22, i32 0, i32 0
  %24 = load i32, ptr %23, align 8, !tbaa !29
  %25 = and i32 %24, 128
  %26 = icmp ne i32 %25, 0
  br i1 %26, label %27, label %30

27:                                               ; preds = %21
  %28 = load ptr, ptr %5, align 8, !tbaa !16
  %29 = call ptr @ossl_quic_obj_get0_handshake_layer(ptr noundef %28)
  br label %31

30:                                               ; preds = %21
  br label %31

31:                                               ; preds = %30, %27
  %32 = phi ptr [ %29, %27 ], [ null, %30 ]
  br label %33

33:                                               ; preds = %31, %19
  %34 = phi ptr [ %20, %19 ], [ %32, %31 ]
  br label %35

35:                                               ; preds = %33, %13
  %36 = phi ptr [ null, %13 ], [ %34, %33 ]
  store ptr %36, ptr %9, align 8, !tbaa !3
  %37 = load ptr, ptr %9, align 8, !tbaa !3
  %38 = icmp eq ptr %37, null
  br i1 %38, label %39, label %40

39:                                               ; preds = %35
  store i32 0, ptr %4, align 4
  store i32 1, ptr %10, align 4
  br label %51

40:                                               ; preds = %35
  %41 = load ptr, ptr %9, align 8, !tbaa !3
  %42 = getelementptr inbounds nuw %struct.ssl_connection_st, ptr %41, i32 0, i32 108
  %43 = load ptr, ptr %42, align 8, !tbaa !384
  store ptr %43, ptr %8, align 8, !tbaa !430
  %44 = icmp eq ptr %43, null
  br i1 %44, label %45, label %46

45:                                               ; preds = %40
  store i32 0, ptr %4, align 4
  store i32 1, ptr %10, align 4
  br label %51

46:                                               ; preds = %40
  %47 = load ptr, ptr %8, align 8, !tbaa !430
  %48 = load ptr, ptr %6, align 8, !tbaa !270
  %49 = load ptr, ptr %7, align 8, !tbaa !12
  %50 = call i32 @ASYNC_WAIT_CTX_get_all_fds(ptr noundef %47, ptr noundef %48, ptr noundef %49)
  store i32 %50, ptr %4, align 4
  store i32 1, ptr %10, align 4
  br label %51

51:                                               ; preds = %46, %45, %39
  call void @llvm.lifetime.end.p0(i64 8, ptr %9) #9
  call void @llvm.lifetime.end.p0(i64 8, ptr %8) #9
  %52 = load i32, ptr %4, align 4
  ret i32 %52
}