; Function Attrs: nounwind uwtable
define i32 @SSL_get_all_async_fds(ptr noundef %0, ptr noundef %1, ptr noundef %2) local_unnamed_addr #0 {
  %4 = icmp eq ptr %0, null
  br i1 %4, label %.thread, label %5

5:                                                ; preds = %3
  %6 = load i32, ptr %0, align 8, !tbaa !19
  %7 = icmp eq i32 %6, 0
  br i1 %7, label %.thread14, label %8

8:                                                ; preds = %5
  %9 = and i32 %6, 128
  %.not = icmp eq i32 %9, 0
  br i1 %.not, label %.thread, label %10

10:                                               ; preds = %8
  %11 = tail call ptr @ossl_quic_obj_get0_handshake_layer(ptr noundef nonnull %0) #20
  %12 = icmp eq ptr %11, null
  br i1 %12, label %.thread, label %.thread14

.thread14:                                        ; preds = %5, %10
  %13 = phi ptr [ %11, %10 ], [ %0, %5 ]
  %14 = getelementptr inbounds nuw i8, ptr %13, i64 5424
  %15 = load ptr, ptr %14, align 8, !tbaa !358
  %16 = icmp eq ptr %15, null
  br i1 %16, label %.thread, label %17

17:                                               ; preds = %.thread14
  %18 = tail call i32 @ASYNC_WAIT_CTX_get_all_fds(ptr noundef nonnull %15, ptr noundef %1, ptr noundef %2) #20
  br label %.thread

.thread:                                          ; preds = %8, %3, %.thread14, %10, %17
  %.0 = phi i32 [ %18, %17 ], [ 0, %10 ], [ 0, %.thread14 ], [ 0, %3 ], [ 0, %8 ]
  ret i32 %.0
}